(lp0
(dp1
I0
F195.0
sI1
F100.0
sI2
F487.5
sI3
F-100.0
sI4
F-497.5
sI5
F105.0
sI6
F192.5
sI7
F-904.2875
sI8
F-701.802
sa(dp2
(I4
I7
tp3
F302.5
s(I1
I3
tp4
F-195.0
s(I1
I2
I5
I6
I7
tp5
F2.5
s(I3
I4
I7
tp6
F202.5
s(I0
I1
I2
tp7
F192.5
s(I2
I8
tp8
F-195.0
s(I2
I6
I8
tp9
F-100.0
s(I0
I1
I2
I8
tp10
F-97.5
s(I1
I2
I8
tp11
F-97.5
s(I0
I7
tp12
F-200.0
s(I0
I5
I7
tp13
F-2.5
s(I0
I3
I8
tp14
F-97.5
s(I4
I6
I8
tp15
F100.0
s(I3
I4
I5
I6
I8
tp16
F100.0
s(I3
I4
I5
I6
I7
tp17
F-2.5
s(I3
I7
tp18
F-2.5
s(I0
I3
tp19
F197.5
s(I5
I8
tp20
F-105.0
s(I3
I5
I8
tp21
F100.0
s(I1
I2
tp22
F295.0
s(I2
I6
I7
tp23
F2.5
s(I5
I6
I7
tp24
F5.0
s(I6
I7
tp25
F7.5
s(I1
I5
tp26
F97.5
s(I0
I3
I4
I8
tp27
F97.5
s(I5
I6
I8
tp28
F-100.0
s(I0
I1
I7
tp29
F97.5
s(I4
I8
tp30
F195.0
s(I5
I6
tp31
F95.0
s(I1
I2
I3
I4
I8
tp32
F97.5
s(I1
I2
I3
I4
I7
tp33
F100.0
s(I2
I7
tp34
F-295.0
s(I0
I1
I8
tp35
F97.5
s(I2
I6
tp36
F97.5
s(I2
I4
I7
tp37
F100.0
s(I1
I5
I8
tp38
F-100.0
s(I3
I4
I8
tp39
F97.5
s(I0
I3
I4
I7
tp40
F100.0
s(I0
I5
I6
I8
tp41
F-100.0
s(I1
I2
I3
I4
tp42
F-195.0
s(I1
I3
I8
tp43
F97.5
s(I1
I2
I5
I6
tp44
F97.5
s(I0
I5
I6
I7
tp45
F2.5
s(I0
I5
tp46
F-97.5
s(I0
I8
tp47
F5.0
s(I6
I8
tp48
F-200.0
s(I2
I4
I8
tp49
F97.5
s(I1
I2
I5
I6
I8
tp50
F-100.0
s(I0
I3
I7
tp51
F-100.0
s(I0
I5
I8
tp52
F100.0
s(I3
I5
tp53
F-95.0
s(I0
I1
tp54
F-192.5
s(I1
I3
I7
tp55
F100.0
s(I0
I1
I2
I7
tp56
F-97.5
s(I0
I3
I4
tp57
F-197.5
s(I4
I6
tp58
F-95.0
s(I1
I5
I7
tp59
F2.5
s(I4
I6
I7
tp60
F-2.5
s(I1
I2
I7
tp61
F-197.5
s(I3
I5
I7
tp62
F-2.5
s(I3
I8
tp63
F102.5
s(I1
I8
tp64
F-102.5
s(I3
I4
I5
I6
tp65
F-95.0
s(I1
I7
tp66
F2.5
s(I3
I4
tp67
F-300.0
s(I2
I4
tp68
F-195.0
s(I0
I5
I6
tp69
F97.5
saI0
a.